target datalayout = "e-m:e-p270:32:32-p271:32:32-p272:64:64-i64:64-i128:128-f80:128-n8:16:32:64-S128"
target triple = "x86_64-pc-linux-gnu"

%struct.H5O_layout_t = type { i32, i32, ptr, %union.anon, %struct.H5O_storage_t }
%union.anon = type { %struct.H5O_layout_chunk_t }
%struct.H5O_layout_chunk_t = type { i32, i8, i32, [33 x i32], i32, i32, i64, i64, [33 x i64], [33 x i64], [33 x i64], [33 x i64], %union.anon.0 }
%union.anon.0 = type { %struct.H5O_layout_chunk_earray_t }
%struct.H5O_layout_chunk_earray_t = type { %struct.anon.1, i32, [33 x i32], [33 x i64], [33 x i64] }
%struct.anon.1 = type { i8, i8, i8, i8, i8 }
%struct.H5O_storage_t = type { i32, %union.anon.3 }
%union.anon.3 = type { %struct.H5O_storage_virtual_t }
%struct.H5O_storage_virtual_t = type { %struct.H5HG_t, i64, ptr, i64, [32 x i64], i32, i64, i64, i64, i8 }
%struct.H5HG_t = type { i64, i64 }
%struct.H5O_storage_compact_t = type { i8, i64, ptr }

@H5_H5O_layout_t_reg_free_list = global { i8, [3 x i8], i32, i32, [4 x i8], ptr, i64, ptr } { i8 0, [3 x i8] zeroinitializer, i32 0, i32 0, [4 x i8] zeroinitializer, ptr @.str.1, i64 2256, ptr null }, align 8
@H5O_init_g = external global i8, align 1
@H5_libterm_g = external global i8, align 1
@.str.2 = private unnamed_addr constant [103 x i8] c"generated/home/dtcxzyw/WorkSpace/Projects/compilers/llvm-opt-benchmark/bench/hdf5/hdf5/src/H5Olayout.c\00", align 1
@H5E_OHDR_g = external global i64, align 8
@H5E_CANTFREE_g = external global i64, align 8
@.str.41 = private unnamed_addr constant [31 x i8] c"unable to reset virtual layout\00", align 1
@__func__.H5O__layout_reset = private unnamed_addr constant [18 x i8] c"H5O__layout_reset\00", align 1

; Function Attrs: nounwind uwtable
define internal i32 @H5O__layout_reset(ptr noundef %0) #0 {
  %2 = alloca ptr, align 8
  %3 = alloca ptr, align 8
  %4 = alloca i32, align 4
  %5 = alloca i8, align 1
  store ptr %0, ptr %2, align 8, !tbaa !20
  call void @llvm.lifetime.start.p0(i64 8, ptr %3) #10
  %6 = load ptr, ptr %2, align 8, !tbaa !20
  store ptr %6, ptr %3, align 8, !tbaa !18
  call void @llvm.lifetime.start.p0(i64 4, ptr %4) #10
  store i32 0, ptr %4, align 4, !tbaa !10
  call void @llvm.lifetime.start.p0(i64 1, ptr %5) #10
  store i8 0, ptr %5, align 1, !tbaa !21
  %7 = load i8, ptr @H5O_init_g, align 1, !tbaa !21, !range !23, !noundef !24
  %8 = trunc i8 %7 to i1
  br i1 %8, label %13, label %9

9:                                                ; preds = %1
  %10 = load i8, ptr @H5_libterm_g, align 1, !tbaa !21, !range !23, !noundef !24
  %11 = trunc i8 %10 to i1
  %12 = xor i1 %11, true
  br label %13

13:                                               ; preds = %9, %1
  %14 = phi i1 [ true, %1 ], [ %12, %9 ]
  %15 = xor i1 %14, true
  %16 = xor i1 %15, true
  %17 = zext i1 %16 to i32
  %18 = sext i32 %17 to i64
  %19 = call i64 @llvm.expect.i64(i64 %18, i64 1)
  %20 = icmp ne i64 %19, 0
  br i1 %20, label %21, label %77

21:                                               ; preds = %13
  %22 = load ptr, ptr %3, align 8, !tbaa !18
  %23 = icmp ne ptr %22, null
  br i1 %23, label %24, label %75

24:                                               ; preds = %21
  %25 = load ptr, ptr %3, align 8, !tbaa !18
  %26 = getelementptr inbounds nuw %struct.H5O_layout_t, ptr %25, i32 0, i32 0
  %27 = load i32, ptr %26, align 8, !tbaa !31
  %28 = icmp eq i32 0, %27
  br i1 %28, label %29, label %40

29:                                               ; preds = %24
  %30 = load ptr, ptr %3, align 8, !tbaa !18
  %31 = getelementptr inbounds nuw %struct.H5O_layout_t, ptr %30, i32 0, i32 4
  %32 = getelementptr inbounds nuw %struct.H5O_storage_t, ptr %31, i32 0, i32 1
  %33 = getelementptr inbounds nuw %struct.H5O_storage_compact_t, ptr %32, i32 0, i32 2
  %34 = load ptr, ptr %33, align 8, !tbaa !29
  %35 = call ptr @H5MM_xfree(ptr noundef %34)
  %36 = load ptr, ptr %3, align 8, !tbaa !18
  %37 = getelementptr inbounds nuw %struct.H5O_layout_t, ptr %36, i32 0, i32 4
  %38 = getelementptr inbounds nuw %struct.H5O_storage_t, ptr %37, i32 0, i32 1
  %39 = getelementptr inbounds nuw %struct.H5O_storage_compact_t, ptr %38, i32 0, i32 2
  store ptr %35, ptr %39, align 8, !tbaa !29
  br label %70

40:                                               ; preds = %24
  %41 = load ptr, ptr %3, align 8, !tbaa !18
  %42 = getelementptr inbounds nuw %struct.H5O_layout_t, ptr %41, i32 0, i32 0
  %43 = load i32, ptr %42, align 8, !tbaa !31
  %44 = icmp eq i32 3, %43
  br i1 %44, label %45, label %69

45:                                               ; preds = %40
  %46 = load ptr, ptr %3, align 8, !tbaa !18
  %47 = call i32 @H5D__virtual_reset_layout(ptr noundef %46)
  %48 = icmp slt i32 %47, 0
  br i1 %48, label %49, label %68

49:                                               ; preds = %45
  br label %50

50:                                               ; preds = %49
  br label %51

51:                                               ; preds = %50
  br label %52

52:                                               ; preds = %51
  %53 = load i64, ptr @H5E_OHDR_g, align 8, !tbaa !14
  %54 = load i64, ptr @H5E_CANTFREE_g, align 8, !tbaa !14
  %55 = call i32 (ptr, ptr, i32, i64, i64, ptr, ...) @H5E_printf_stack(ptr noundef @.str.2, ptr noundef @__func__.H5O__layout_reset, i32 noundef 1085, i64 noundef %53, i64 noundef %54, ptr noundef @.str.41)
  br label %56

56:                                               ; preds = %52
  br label %57

57:                                               ; preds = %56
  store i8 1, ptr %5, align 1, !tbaa !21
  %58 = load i8, ptr %5, align 1, !tbaa !21, !range !23, !noundef !24
  %59 = trunc i8 %58 to i1
  %60 = zext i1 %59 to i8
  store i8 %60, ptr %5, align 1, !tbaa !21
  br label %61

61:                                               ; preds = %57
  br label %62

62:                                               ; preds = %61
  br label %63

63:                                               ; preds = %62
  store i32 -1, ptr %4, align 4, !tbaa !10
  br label %76

64:                                               ; No predecessors!
  br label %65

65:                                               ; preds = %64
  br label %66

66:                                               ; preds = %65
  br label %67

67:                                               ; preds = %66
  br label %68

68:                                               ; preds = %67, %45
  br label %69

69:                                               ; preds = %68, %40
  br label %70

70:                                               ; preds = %69, %29
  %71 = load ptr, ptr %3, align 8, !tbaa !18
  %72 = getelementptr inbounds nuw %struct.H5O_layout_t, ptr %71, i32 0, i32 0
  store i32 1, ptr %72, align 8, !tbaa !31
  %73 = load ptr, ptr %3, align 8, !tbaa !18
  %74 = getelementptr inbounds nuw %struct.H5O_layout_t, ptr %73, i32 0, i32 1
  store i32 3, ptr %74, align 4, !tbaa !30
  br label %75

75:                                               ; preds = %70, %21
  br label %76

76:                                               ; preds = %75, %63
  br label %77

77:                                               ; preds = %76, %13
  %78 = load i32, ptr %4, align 4, !tbaa !10
  call void @llvm.lifetime.end.p0(i64 1, ptr %5) #10
  call void @llvm.lifetime.end.p0(i64 4, ptr %4) #10
  call void @llvm.lifetime.end.p0(i64 8, ptr %3) #10
  ret i32 %78
}

; Function Attrs: nounwind uwtable
define internal i32 @H5O__layout_free(ptr noundef %0) #0 {
  %2 = alloca ptr, align 8
  %3 = alloca ptr, align 8
  store ptr %0, ptr %2, align 8, !tbaa !20
  call void @llvm.lifetime.start.p0(i64 8, ptr %3) #10
  %4 = load ptr, ptr %2, align 8, !tbaa !20
  store ptr %4, ptr %3, align 8, !tbaa !18
  %5 = load i8, ptr @H5O_init_g, align 1, !tbaa !21, !range !23, !noundef !24
  %6 = trunc i8 %5 to i1
  br i1 %6, label %11, label %7

7:                                                ; preds = %1
  %8 = load i8, ptr @H5_libterm_g, align 1, !tbaa !21, !range !23, !noundef !24
  %9 = trunc i8 %8 to i1
  %10 = xor i1 %9, true
  br label %11

11:                                               ; preds = %7, %1
  %12 = phi i1 [ true, %1 ], [ %10, %7 ]
  %13 = xor i1 %12, true
  %14 = xor i1 %13, true
  %15 = zext i1 %14 to i32
  %16 = sext i32 %15 to i64
  %17 = call i64 @llvm.expect.i64(i64 %16, i64 1)
  %18 = icmp ne i64 %17, 0
  br i1 %18, label %19, label %24

19:                                               ; preds = %11
  %20 = load ptr, ptr %3, align 8, !tbaa !18
  %21 = call i32 @H5O__layout_reset(ptr noundef %20)
  %22 = load ptr, ptr %3, align 8, !tbaa !18
  %23 = call ptr @H5FL_reg_free(ptr noundef @H5_H5O_layout_t_reg_free_list, ptr noundef %22)
  br label %24

24:                                               ; preds = %19, %11
  call void @llvm.lifetime.end.p0(i64 8, ptr %3) #10
  ret i32 0
}